target datalayout = "e-m:e-p270:32:32-p271:32:32-p272:64:64-i64:64-i128:128-f80:128-n8:16:32:64-S128"
target triple = "x86_64-pc-linux-gnu"

%struct.stbi_io_callbacks = type { ptr, ptr, ptr }
%struct.stbi__context = type { i32, i32, i32, i32, %struct.stbi_io_callbacks, ptr, i32, i32, [128 x i8], i32, ptr, ptr, ptr, ptr }

; Function Attrs: mustprogress uwtable
define internal void @_ZL10stbi__skipP13stbi__contexti(ptr noundef %0, i32 noundef %1) #2 {
  %3 = alloca ptr, align 8
  %4 = alloca i32, align 4
  %5 = alloca i32, align 4
  %6 = alloca i32, align 4
  store ptr %0, ptr %3, align 8, !tbaa !10
  store i32 %1, ptr %4, align 4, !tbaa !11
  %7 = load i32, ptr %4, align 4, !tbaa !11
  %8 = icmp eq i32 %7, 0
  br i1 %8, label %9, label %10

9:                                                ; preds = %2
  br label %66

10:                                               ; preds = %2
  %11 = load i32, ptr %4, align 4, !tbaa !11
  %12 = icmp slt i32 %11, 0
  br i1 %12, label %13, label %19

13:                                               ; preds = %10
  %14 = load ptr, ptr %3, align 8, !tbaa !10
  %15 = getelementptr inbounds nuw %struct.stbi__context, ptr %14, i32 0, i32 11
  %16 = load ptr, ptr %15, align 8, !tbaa !17
  %17 = load ptr, ptr %3, align 8, !tbaa !10
  %18 = getelementptr inbounds nuw %struct.stbi__context, ptr %17, i32 0, i32 10
  store ptr %16, ptr %18, align 8, !tbaa !20
  br label %66

19:                                               ; preds = %10
  %20 = load ptr, ptr %3, align 8, !tbaa !10
  %21 = getelementptr inbounds nuw %struct.stbi__context, ptr %20, i32 0, i32 4
  %22 = getelementptr inbounds nuw %struct.stbi_io_callbacks, ptr %21, i32 0, i32 0
  %23 = load ptr, ptr %22, align 8, !tbaa !30
  %24 = icmp ne ptr %23, null
  br i1 %24, label %25, label %59

25:                                               ; preds = %19
  call void @llvm.lifetime.start.p0(i64 4, ptr %5) #22
  %26 = load ptr, ptr %3, align 8, !tbaa !10
  %27 = getelementptr inbounds nuw %struct.stbi__context, ptr %26, i32 0, i32 11
  %28 = load ptr, ptr %27, align 8, !tbaa !17
  %29 = load ptr, ptr %3, align 8, !tbaa !10
  %30 = getelementptr inbounds nuw %struct.stbi__context, ptr %29, i32 0, i32 10
  %31 = load ptr, ptr %30, align 8, !tbaa !20
  %32 = ptrtoint ptr %28 to i64
  %33 = ptrtoint ptr %31 to i64
  %34 = sub i64 %32, %33
  %35 = trunc i64 %34 to i32
  store i32 %35, ptr %5, align 4, !tbaa !11
  %36 = load i32, ptr %5, align 4, !tbaa !11
  %37 = load i32, ptr %4, align 4, !tbaa !11
  %38 = icmp slt i32 %36, %37
  br i1 %38, label %39, label %55

39:                                               ; preds = %25
  %40 = load ptr, ptr %3, align 8, !tbaa !10
  %41 = getelementptr inbounds nuw %struct.stbi__context, ptr %40, i32 0, i32 11
  %42 = load ptr, ptr %41, align 8, !tbaa !17
  %43 = load ptr, ptr %3, align 8, !tbaa !10
  %44 = getelementptr inbounds nuw %struct.stbi__context, ptr %43, i32 0, i32 10
  store ptr %42, ptr %44, align 8, !tbaa !20
  %45 = load ptr, ptr %3, align 8, !tbaa !10
  %46 = getelementptr inbounds nuw %struct.stbi__context, ptr %45, i32 0, i32 4
  %47 = getelementptr inbounds nuw %struct.stbi_io_callbacks, ptr %46, i32 0, i32 1
  %48 = load ptr, ptr %47, align 8, !tbaa !113
  %49 = load ptr, ptr %3, align 8, !tbaa !10
  %50 = getelementptr inbounds nuw %struct.stbi__context, ptr %49, i32 0, i32 5
  %51 = load ptr, ptr %50, align 8, !tbaa !24
  %52 = load i32, ptr %4, align 4, !tbaa !11
  %53 = load i32, ptr %5, align 4, !tbaa !11
  %54 = sub nsw i32 %52, %53
  call void %48(ptr noundef %51, i32 noundef %54)
  store i32 1, ptr %6, align 4
  br label %56

55:                                               ; preds = %25
  store i32 0, ptr %6, align 4
  br label %56

56:                                               ; preds = %55, %39
  call void @llvm.lifetime.end.p0(i64 4, ptr %5) #22
  %57 = load i32, ptr %6, align 4
  switch i32 %57, label %67 [
    i32 0, label %58
    i32 1, label %66
  ]

58:                                               ; preds = %56
  br label %59

59:                                               ; preds = %58, %19
  %60 = load i32, ptr %4, align 4, !tbaa !11
  %61 = load ptr, ptr %3, align 8, !tbaa !10
  %62 = getelementptr inbounds nuw %struct.stbi__context, ptr %61, i32 0, i32 10
  %63 = load ptr, ptr %62, align 8, !tbaa !20
  %64 = sext i32 %60 to i64
  %65 = getelementptr inbounds i8, ptr %63, i64 %64
  store ptr %65, ptr %62, align 8, !tbaa !20
  br label %66

66:                                               ; preds = %59, %56, %13, %9
  ret void

67:                                               ; preds = %56
  unreachable
}