; Function Attrs: mustprogress uwtable
define internal fastcc void @_ZL10stbi__skipP13stbi__contexti(ptr noundef captures(none) %0, i32 noundef %1) unnamed_addr #4 {
  %3 = icmp eq i32 %1, 0
  br i1 %3, label %33, label %4

4:                                                ; preds = %2
  %5 = icmp slt i32 %1, 0
  br i1 %5, label %6, label %10

6:                                                ; preds = %4
  %7 = getelementptr inbounds nuw i8, ptr %0, i64 200
  %8 = load ptr, ptr %7, align 8, !tbaa !24
  %9 = getelementptr inbounds nuw i8, ptr %0, i64 192
  store ptr %8, ptr %9, align 8, !tbaa !21
  br label %33

10:                                               ; preds = %4
  %11 = getelementptr inbounds nuw i8, ptr %0, i64 16
  %12 = load ptr, ptr %11, align 8, !tbaa !22
  %.not = icmp eq ptr %12, null
  br i1 %.not, label %..thread_crit_edge, label %13

..thread_crit_edge:                               ; preds = %10
  %.phi.trans.insert = getelementptr inbounds nuw i8, ptr %0, i64 192
  %.pre = load ptr, ptr %.phi.trans.insert, align 8, !tbaa !21
  br label %.thread

13:                                               ; preds = %10
  %14 = getelementptr inbounds nuw i8, ptr %0, i64 200
  %15 = load ptr, ptr %14, align 8, !tbaa !24
  %16 = getelementptr inbounds nuw i8, ptr %0, i64 192
  %17 = load ptr, ptr %16, align 8, !tbaa !21
  %18 = ptrtoint ptr %15 to i64
  %19 = ptrtoint ptr %17 to i64
  %20 = sub i64 %18, %19
  %21 = trunc i64 %20 to i32
  %22 = icmp sgt i32 %1, %21
  br i1 %22, label %23, label %.thread

23:                                               ; preds = %13
  store ptr %15, ptr %16, align 8, !tbaa !21
  %24 = getelementptr inbounds nuw i8, ptr %0, i64 24
  %25 = load ptr, ptr %24, align 8, !tbaa !59
  %26 = getelementptr inbounds nuw i8, ptr %0, i64 40
  %27 = load ptr, ptr %26, align 8, !tbaa !14
  %28 = sub nsw i32 %1, %21
  tail call void %25(ptr noundef %27, i32 noundef %28)
  br label %33

.thread:                                          ; preds = %..thread_crit_edge, %13
  %29 = phi ptr [ %.pre, %..thread_crit_edge ], [ %17, %13 ]
  %30 = getelementptr inbounds nuw i8, ptr %0, i64 192
  %31 = zext nneg i32 %1 to i64
  %32 = getelementptr inbounds nuw i8, ptr %29, i64 %31
  store ptr %32, ptr %30, align 8, !tbaa !21
  br label %33

33:                                               ; preds = %23, %2, %.thread, %6
  ret void
}